; Function Attrs: nounwind uwtable
define hidden void @avifIODestroy(ptr noundef %0) local_unnamed_addr #0 {
  %.not = icmp eq ptr %0, null
  br i1 %.not, label %5, label %2

2:                                                ; preds = %1
  %3 = load ptr, ptr %0, align 8
  %.not5 = icmp eq ptr %3, null
  br i1 %.not5, label %5, label %4

4:                                                ; preds = %2
  tail call void %3(ptr noundef nonnull %0) #7
  br label %5

5:                                                ; preds = %4, %2, %1
  ret void
}